; Function Attrs: mustprogress nofree norecurse nosync nounwind willreturn memory(argmem: readwrite) uwtable
define noundef nonnull align 8 dereferenceable(336) ptr @_ZN6icu_7712RegexMatcher5resetEv(ptr noundef nonnull returned align 8 dereferenceable(336) initializes((64, 128), (130, 131), (136, 170), (268, 276)) %0) unnamed_addr #10 align 2 {
  %2 = getelementptr inbounds nuw i8, ptr %0, i64 64
  store i64 0, ptr %2, align 8, !tbaa !65
  %3 = getelementptr inbounds nuw i8, ptr %0, i64 48
  %4 = load i64, ptr %3, align 8, !tbaa !66
  %5 = getelementptr inbounds nuw i8, ptr %0, i64 72
  store i64 %4, ptr %5, align 8, !tbaa !67
  %6 = getelementptr inbounds nuw i8, ptr %0, i64 112
  store i64 0, ptr %6, align 8, !tbaa !68
  %7 = getelementptr inbounds nuw i8, ptr %0, i64 120
  store i64 %4, ptr %7, align 8, !tbaa !69
  %8 = getelementptr inbounds nuw i8, ptr %0, i64 80
  store i64 0, ptr %8, align 8, !tbaa !70
  %9 = getelementptr inbounds nuw i8, ptr %0, i64 88
  store i64 %4, ptr %9, align 8, !tbaa !71
  %10 = getelementptr inbounds nuw i8, ptr %0, i64 96
  store i64 0, ptr %10, align 8, !tbaa !72
  %11 = getelementptr inbounds nuw i8, ptr %0, i64 104
  store i64 %4, ptr %11, align 8, !tbaa !73
  %12 = getelementptr inbounds nuw i8, ptr %0, i64 136
  %13 = getelementptr inbounds nuw i8, ptr %0, i64 152
  tail call void @llvm.memset.p0.i64(ptr noundef nonnull align 8 dereferenceable(16) %12, i8 0, i64 16, i1 false)
  store i64 -1, ptr %13, align 8, !tbaa !30
  %14 = getelementptr inbounds nuw i8, ptr %0, i64 160
  store i64 0, ptr %14, align 8, !tbaa !31
  %15 = getelementptr inbounds nuw i8, ptr %0, i64 130
  store i8 0, ptr %15, align 2, !tbaa !29
  %16 = getelementptr inbounds nuw i8, ptr %0, i64 168
  store i8 0, ptr %16, align 8, !tbaa !32
  %17 = getelementptr inbounds nuw i8, ptr %0, i64 169
  store i8 0, ptr %17, align 1, !tbaa !33
  %18 = getelementptr inbounds nuw i8, ptr %0, i64 268
  store i32 0, ptr %18, align 4, !tbaa !35
  %19 = getelementptr inbounds nuw i8, ptr %0, i64 272
  store i32 10000, ptr %19, align 8, !tbaa !36
  ret ptr %0
}